	.file	"examples.c"
	.text
	.globl	sum_list
	.type	sum_list, @function
sum_list:
.LFB0:
	.cfi_startproc
	endbr64
	pushq	%rbp
	.cfi_def_cfa_offset 16
	.cfi_offset 6, -16
	movq	%rsp, %rbp
	.cfi_def_cfa_register 6
	movq	%rdi, -24(%rbp)
	movq	$0, -8(%rbp)
	jmp	.L2
.L3:
	movq	-24(%rbp), %rax
	movq	(%rax), %rax
	addq	%rax, -8(%rbp)
	movq	-24(%rbp), %rax
	movq	8(%rax), %rax
	movq	%rax, -24(%rbp)
.L2:
	cmpq	$0, -24(%rbp)
	jne	.L3
	movq	-8(%rbp), %rax
	popq	%rbp
	.cfi_def_cfa 7, 8
	ret
	.cfi_endproc
.LFE0:
	.size	sum_list, .-sum_list
	.globl	rsum_list
	.type	rsum_list, @function
rsum_list:
.LFB1:
	.cfi_startproc
	endbr64
	pushq	%rbp
	.cfi_def_cfa_offset 16
	.cfi_offset 6, -16
	movq	%rsp, %rbp
	.cfi_def_cfa_register 6
	subq	$32, %rsp
	movq	%rdi, -24(%rbp)
	cmpq	$0, -24(%rbp)
	jne	.L6
	movl	$0, %eax
	jmp	.L7
.L6:
	movq	-24(%rbp), %rax
	movq	(%rax), %rax
	movq	%rax, -16(%rbp)
	movq	-24(%rbp), %rax
	movq	8(%rax), %rax
	movq	%rax, %rdi
	call	rsum_list
	movq	%rax, -8(%rbp)
	movq	-16(%rbp), %rdx
	movq	-8(%rbp), %rax
	addq	%rdx, %rax
.L7:
	leave
	.cfi_def_cfa 7, 8
	ret
	.cfi_endproc
.LFE1:
	.size	rsum_list, .-rsum_list
	.globl	bubble_sort
	.type	bubble_sort, @function
bubble_sort:
.LFB2:
	.cfi_startproc
	endbr64
	pushq	%rbp
	.cfi_def_cfa_offset 16
	.cfi_offset 6, -16
	movq	%rsp, %rbp
	.cfi_def_cfa_register 6
	movq	%rdi, -40(%rbp)
	movq	%rsi, -48(%rbp)
	movq	-48(%rbp), %rax
	salq	$3, %rax
	leaq	-8(%rax), %rdx
	movq	-40(%rbp), %rax
	addq	%rdx, %rax
	movq	%rax, -16(%rbp)
	jmp	.L9
.L13:
	movq	-40(%rbp), %rax
	movq	%rax, -24(%rbp)
	jmp	.L10
.L12:
	movq	-24(%rbp), %rax
	addq	$8, %rax
	movq	(%rax), %rdx
	movq	-24(%rbp), %rax
	movq	(%rax), %rax
	cmpq	%rax, %rdx
	jge	.L11
	movq	-24(%rbp), %rax
	movq	8(%rax), %rax
	movq	%rax, -8(%rbp)
	movq	-24(%rbp), %rax
	leaq	8(%rax), %rdx
	movq	-24(%rbp), %rax
	movq	(%rax), %rax
	movq	%rax, (%rdx)
	movq	-24(%rbp), %rax
	movq	-8(%rbp), %rdx
	movq	%rdx, (%rax)
.L11:
	addq	$8, -24(%rbp)
.L10:
	movq	-24(%rbp), %rax
	cmpq	-16(%rbp), %rax
	jb	.L12
	subq	$8, -16(%rbp)
.L9:
	movq	-16(%rbp), %rax
	cmpq	-40(%rbp), %rax
	ja	.L13
	nop
	nop
	popq	%rbp
	.cfi_def_cfa 7, 8
	ret
	.cfi_endproc
.LFE2:
	.size	bubble_sort, .-bubble_sort
	.ident	"GCC: (Ubuntu 9.4.0-1ubuntu1~20.04.1) 9.4.0"
	.section	.note.GNU-stack,"",@progbits
	.section	.note.gnu.property,"a"
	.align 8
	.long	 1f - 0f
	.long	 4f - 1f
	.long	 5
0:
	.string	 "GNU"
1:
	.align 8
	.long	 0xc0000002
	.long	 3f - 2f
2:
	.long	 0x3
3:
	.align 8
4:
